target datalayout = "e-m:e-p270:32:32-p271:32:32-p272:64:64-i64:64-i128:128-f80:128-n8:16:32:64-S128"
target triple = "x86_64-pc-linux-gnu"

%struct.block_q5_0 = type { i16, [4 x i8], [16 x i8] }

@ggml_table_f32_f16 = external global [65536 x float], align 16

; Function Attrs: inlinehint nounwind uwtable
define internal float @ggml_lookup_fp16_to_fp32(i16 noundef zeroext %0) #3 {
  %2 = alloca i16, align 2
  %3 = alloca i16, align 2
  store i16 %0, ptr %2, align 2, !tbaa !42
  call void @llvm.lifetime.start.p0(i64 2, ptr %3) #10
  call void @llvm.memcpy.p0.p0.i64(ptr align 2 %3, ptr align 2 %2, i64 2, i1 false)
  %4 = load i16, ptr %3, align 2, !tbaa !42
  %5 = zext i16 %4 to i64
  %6 = getelementptr inbounds nuw [65536 x float], ptr @ggml_table_f32_f16, i64 0, i64 %5
  %7 = load float, ptr %6, align 4, !tbaa !13
  call void @llvm.lifetime.end.p0(i64 2, ptr %3) #10
  ret float %7
}

; Function Attrs: nounwind uwtable
define void @dequantize_row_q5_0(ptr noalias noundef %0, ptr noalias noundef %1, i64 noundef %2) #0 {
  %4 = alloca ptr, align 8
  %5 = alloca ptr, align 8
  %6 = alloca i64, align 8
  %7 = alloca i32, align 4
  %8 = alloca i32, align 4
  %9 = alloca i32, align 4
  %10 = alloca float, align 4
  %11 = alloca i32, align 4
  %12 = alloca i32, align 4
  %13 = alloca i8, align 1
  %14 = alloca i8, align 1
  %15 = alloca i32, align 4
  %16 = alloca i32, align 4
  store ptr %0, ptr %4, align 8, !tbaa !8
  store ptr %1, ptr %5, align 8, !tbaa !3
  store i64 %2, ptr %6, align 8, !tbaa !9
  call void @llvm.lifetime.start.p0(i64 4, ptr %7) #10
  %17 = load i64, ptr %6, align 8, !tbaa !9
  %18 = sdiv i64 %17, 32
  %19 = trunc i64 %18 to i32
  store i32 %19, ptr %7, align 4, !tbaa !11
  call void @llvm.lifetime.start.p0(i64 4, ptr %8) #10
  store i32 0, ptr %8, align 4, !tbaa !11
  br label %20

20:                                               ; preds = %115, %3
  %21 = load i32, ptr %8, align 4, !tbaa !11
  %22 = load i32, ptr %7, align 4, !tbaa !11
  %23 = icmp slt i32 %21, %22
  br i1 %23, label %25, label %24

24:                                               ; preds = %20
  store i32 2, ptr %9, align 4
  call void @llvm.lifetime.end.p0(i64 4, ptr %8) #10
  br label %118

25:                                               ; preds = %20
  call void @llvm.lifetime.start.p0(i64 4, ptr %10) #10
  %26 = load ptr, ptr %4, align 8, !tbaa !8
  %27 = load i32, ptr %8, align 4, !tbaa !11
  %28 = sext i32 %27 to i64
  %29 = getelementptr inbounds %struct.block_q5_0, ptr %26, i64 %28
  %30 = getelementptr inbounds nuw %struct.block_q5_0, ptr %29, i32 0, i32 0
  %31 = load i16, ptr %30, align 2, !tbaa !27
  %32 = call float @ggml_lookup_fp16_to_fp32(i16 noundef zeroext %31)
  store float %32, ptr %10, align 4, !tbaa !13
  call void @llvm.lifetime.start.p0(i64 4, ptr %11) #10
  %33 = load ptr, ptr %4, align 8, !tbaa !8
  %34 = load i32, ptr %8, align 4, !tbaa !11
  %35 = sext i32 %34 to i64
  %36 = getelementptr inbounds %struct.block_q5_0, ptr %33, i64 %35
  %37 = getelementptr inbounds nuw %struct.block_q5_0, ptr %36, i32 0, i32 1
  %38 = getelementptr inbounds [4 x i8], ptr %37, i64 0, i64 0
  call void @llvm.memcpy.p0.p0.i64(ptr align 4 %11, ptr align 2 %38, i64 4, i1 false)
  call void @llvm.lifetime.start.p0(i64 4, ptr %12) #10
  store i32 0, ptr %12, align 4, !tbaa !11
  br label %39

39:                                               ; preds = %111, %25
  %40 = load i32, ptr %12, align 4, !tbaa !11
  %41 = icmp slt i32 %40, 16
  br i1 %41, label %43, label %42

42:                                               ; preds = %39
  store i32 5, ptr %9, align 4
  call void @llvm.lifetime.end.p0(i64 4, ptr %12) #10
  br label %114

43:                                               ; preds = %39
  call void @llvm.lifetime.start.p0(i64 1, ptr %13) #10
  %44 = load i32, ptr %11, align 4, !tbaa !11
  %45 = load i32, ptr %12, align 4, !tbaa !11
  %46 = add nsw i32 %45, 0
  %47 = lshr i32 %44, %46
  %48 = shl i32 %47, 4
  %49 = and i32 %48, 16
  %50 = trunc i32 %49 to i8
  store i8 %50, ptr %13, align 1, !tbaa !20
  call void @llvm.lifetime.start.p0(i64 1, ptr %14) #10
  %51 = load i32, ptr %11, align 4, !tbaa !11
  %52 = load i32, ptr %12, align 4, !tbaa !11
  %53 = add nsw i32 %52, 12
  %54 = lshr i32 %51, %53
  %55 = and i32 %54, 16
  %56 = trunc i32 %55 to i8
  store i8 %56, ptr %14, align 1, !tbaa !20
  call void @llvm.lifetime.start.p0(i64 4, ptr %15) #10
  %57 = load ptr, ptr %4, align 8, !tbaa !8
  %58 = load i32, ptr %8, align 4, !tbaa !11
  %59 = sext i32 %58 to i64
  %60 = getelementptr inbounds %struct.block_q5_0, ptr %57, i64 %59
  %61 = getelementptr inbounds nuw %struct.block_q5_0, ptr %60, i32 0, i32 2
  %62 = load i32, ptr %12, align 4, !tbaa !11
  %63 = sext i32 %62 to i64
  %64 = getelementptr inbounds [16 x i8], ptr %61, i64 0, i64 %63
  %65 = load i8, ptr %64, align 1, !tbaa !20
  %66 = zext i8 %65 to i32
  %67 = and i32 %66, 15
  %68 = load i8, ptr %13, align 1, !tbaa !20
  %69 = zext i8 %68 to i32
  %70 = or i32 %67, %69
  %71 = sub nsw i32 %70, 16
  store i32 %71, ptr %15, align 4, !tbaa !11
  call void @llvm.lifetime.start.p0(i64 4, ptr %16) #10
  %72 = load ptr, ptr %4, align 8, !tbaa !8
  %73 = load i32, ptr %8, align 4, !tbaa !11
  %74 = sext i32 %73 to i64
  %75 = getelementptr inbounds %struct.block_q5_0, ptr %72, i64 %74
  %76 = getelementptr inbounds nuw %struct.block_q5_0, ptr %75, i32 0, i32 2
  %77 = load i32, ptr %12, align 4, !tbaa !11
  %78 = sext i32 %77 to i64
  %79 = getelementptr inbounds [16 x i8], ptr %76, i64 0, i64 %78
  %80 = load i8, ptr %79, align 1, !tbaa !20
  %81 = zext i8 %80 to i32
  %82 = ashr i32 %81, 4
  %83 = load i8, ptr %14, align 1, !tbaa !20
  %84 = zext i8 %83 to i32
  %85 = or i32 %82, %84
  %86 = sub nsw i32 %85, 16
  store i32 %86, ptr %16, align 4, !tbaa !11
  %87 = load i32, ptr %15, align 4, !tbaa !11
  %88 = sitofp i32 %87 to float
  %89 = load float, ptr %10, align 4, !tbaa !13
  %90 = fmul float %88, %89
  %91 = load ptr, ptr %5, align 8, !tbaa !3
  %92 = load i32, ptr %8, align 4, !tbaa !11
  %93 = mul nsw i32 %92, 32
  %94 = load i32, ptr %12, align 4, !tbaa !11
  %95 = add nsw i32 %93, %94
  %96 = add nsw i32 %95, 0
  %97 = sext i32 %96 to i64
  %98 = getelementptr inbounds float, ptr %91, i64 %97
  store float %90, ptr %98, align 4, !tbaa !13
  %99 = load i32, ptr %16, align 4, !tbaa !11
  %100 = sitofp i32 %99 to float
  %101 = load float, ptr %10, align 4, !tbaa !13
  %102 = fmul float %100, %101
  %103 = load ptr, ptr %5, align 8, !tbaa !3
  %104 = load i32, ptr %8, align 4, !tbaa !11
  %105 = mul nsw i32 %104, 32
  %106 = load i32, ptr %12, align 4, !tbaa !11
  %107 = add nsw i32 %105, %106
  %108 = add nsw i32 %107, 16
  %109 = sext i32 %108 to i64
  %110 = getelementptr inbounds float, ptr %103, i64 %109
  store float %102, ptr %110, align 4, !tbaa !13
  call void @llvm.lifetime.end.p0(i64 4, ptr %16) #10
  call void @llvm.lifetime.end.p0(i64 4, ptr %15) #10
  call void @llvm.lifetime.end.p0(i64 1, ptr %14) #10
  call void @llvm.lifetime.end.p0(i64 1, ptr %13) #10
  br label %111

111:                                              ; preds = %43
  %112 = load i32, ptr %12, align 4, !tbaa !11
  %113 = add nsw i32 %112, 1
  store i32 %113, ptr %12, align 4, !tbaa !11
  br label %39, !llvm.loop !45

114:                                              ; preds = %42
  call void @llvm.lifetime.end.p0(i64 4, ptr %11) #10
  call void @llvm.lifetime.end.p0(i64 4, ptr %10) #10
  br label %115

115:                                              ; preds = %114
  %116 = load i32, ptr %8, align 4, !tbaa !11
  %117 = add nsw i32 %116, 1
  store i32 %117, ptr %8, align 4, !tbaa !11
  br label %20, !llvm.loop !46

118:                                              ; preds = %24
  call void @llvm.lifetime.end.p0(i64 4, ptr %7) #10
  ret void
}