; Function Attrs: nofree norecurse nosync nounwind memory(read, argmem: readwrite, inaccessiblemem: none) uwtable
define void @dequantize_row_q5_0(ptr noalias noundef readonly captures(none) %0, ptr noalias noundef writeonly captures(none) %1, i64 noundef %2) local_unnamed_addr #4 {
  %4 = sdiv i64 %2, 32
  %5 = trunc i64 %4 to i32
  %6 = icmp sgt i32 %5, 0
  br i1 %6, label %.lr.ph.preheader, label %._crit_edge

.lr.ph.preheader:                                 ; preds = %3
  %wide.trip.count = and i64 %4, 2147483647
  br label %.lr.ph

._crit_edge:                                      ; preds = %15, %3
  ret void

.lr.ph:                                           ; preds = %.lr.ph.preheader, %15
  %indvars.iv35 = phi i64 [ 0, %.lr.ph.preheader ], [ %indvars.iv.next36, %15 ]
  %7 = getelementptr inbounds nuw %struct.block_q5_0, ptr %0, i64 %indvars.iv35
  %8 = load i16, ptr %7, align 2, !tbaa !18
  %9 = zext i16 %8 to i64
  %10 = getelementptr inbounds nuw [65536 x float], ptr @ggml_table_f32_f16, i64 0, i64 %9
  %11 = load float, ptr %10, align 4, !tbaa !8
  %12 = getelementptr inbounds nuw i8, ptr %7, i64 2
  %.0.copyload = load i32, ptr %12, align 2
  %13 = getelementptr inbounds nuw i8, ptr %7, i64 6
  %14 = shl nsw i64 %indvars.iv35, 5
  br label %16

15:                                               ; preds = %16
  %indvars.iv.next36 = add nuw nsw i64 %indvars.iv35, 1
  %exitcond38.not = icmp eq i64 %indvars.iv.next36, %wide.trip.count
  br i1 %exitcond38.not, label %._crit_edge, label %.lr.ph, !llvm.loop !36

16:                                               ; preds = %.lr.ph, %16
  %indvars.iv = phi i64 [ 0, %.lr.ph ], [ %indvars.iv.next, %16 ]
  %17 = trunc nuw nsw i64 %indvars.iv to i32
  %18 = lshr i32 %.0.copyload, %17
  %19 = shl i32 %18, 4
  %20 = and i32 %19, 16
  %21 = trunc i64 %indvars.iv to i32
  %22 = add i32 %21, 12
  %23 = lshr i32 %.0.copyload, %22
  %24 = and i32 %23, 16
  %25 = getelementptr inbounds nuw [16 x i8], ptr %13, i64 0, i64 %indvars.iv
  %26 = load i8, ptr %25, align 1, !tbaa !13
  %27 = zext i8 %26 to i32
  %28 = and i32 %27, 15
  %29 = add nsw i32 %20, -16
  %30 = or disjoint i32 %29, %28
  %31 = lshr i32 %27, 4
  %32 = add nsw i32 %24, -16
  %33 = or disjoint i32 %32, %31
  %34 = sitofp i32 %30 to float
  %35 = fmul float %11, %34
  %36 = add nuw nsw i64 %indvars.iv, %14
  %37 = getelementptr inbounds nuw float, ptr %1, i64 %36
  store float %35, ptr %37, align 4, !tbaa !8
  %38 = sitofp i32 %33 to float
  %39 = fmul float %11, %38
  %40 = or disjoint i64 %36, 16
  %41 = getelementptr inbounds nuw float, ptr %1, i64 %40
  store float %39, ptr %41, align 4, !tbaa !8
  %indvars.iv.next = add nuw nsw i64 %indvars.iv, 1
  %exitcond.not = icmp eq i64 %indvars.iv.next, 16
  br i1 %exitcond.not, label %15, label %16, !llvm.loop !37
}